; Function Attrs: mustprogress nofree norecurse nosync nounwind willreturn memory(read, inaccessiblemem: none) uwtable
define internal fastcc noundef ptr @_ZN4ofbxL9findChildERKNS_7ElementEPKc(ptr nocapture noundef nonnull readonly align 8 dereferenceable(56) %0, ptr nocapture noundef readonly %1) unnamed_addr #4 {
  %3 = getelementptr inbounds i8, ptr %0, i64 32
  %4 = load ptr, ptr %3, align 8
  %.not10 = icmp eq ptr %4, null
  br i1 %.not10, label %_ZNK4ofbx8DataVieweqEPKc.exit._crit_edge, label %.lr.ph

.lr.ph:                                           ; preds = %2
  %5 = load i8, ptr %1, align 1
  %.fr = freeze i8 %5
  %.not19.i = icmp eq i8 %.fr, 0
  br i1 %.not19.i, label %_ZNK4ofbx8DataVieweqEPKc.exit.us, label %.lr.ph.split

_ZNK4ofbx8DataVieweqEPKc.exit.us:                 ; preds = %.lr.ph, %_ZNK4ofbx8DataVieweqEPKc.exit.thread.us
  %6 = phi ptr [ %12, %_ZNK4ofbx8DataVieweqEPKc.exit.thread.us ], [ %4, %.lr.ph ]
  %7 = getelementptr inbounds i8, ptr %6, i64 8
  %8 = load ptr, ptr %7, align 8
  %9 = getelementptr inbounds i8, ptr %6, i64 16
  %10 = load ptr, ptr %9, align 8
  %.not1420.i.us = icmp eq ptr %8, %10
  br i1 %.not1420.i.us, label %_ZNK4ofbx8DataVieweqEPKc.exit._crit_edge, label %_ZNK4ofbx8DataVieweqEPKc.exit.thread.us

_ZNK4ofbx8DataVieweqEPKc.exit.thread.us:          ; preds = %_ZNK4ofbx8DataVieweqEPKc.exit.us
  %11 = getelementptr inbounds i8, ptr %6, i64 40
  %12 = load ptr, ptr %11, align 8
  %.not.us = icmp eq ptr %12, null
  br i1 %.not.us, label %_ZNK4ofbx8DataVieweqEPKc.exit._crit_edge, label %_ZNK4ofbx8DataVieweqEPKc.exit.us, !llvm.loop !8

.lr.ph.split:                                     ; preds = %.lr.ph, %_ZNK4ofbx8DataVieweqEPKc.exit.thread
  %13 = phi ptr [ %26, %_ZNK4ofbx8DataVieweqEPKc.exit.thread ], [ %4, %.lr.ph ]
  %14 = getelementptr inbounds i8, ptr %13, i64 8
  %15 = load ptr, ptr %14, align 8
  %16 = getelementptr inbounds i8, ptr %13, i64 16
  %17 = load ptr, ptr %16, align 8
  %.not1420.i = icmp eq ptr %15, %17
  br i1 %.not1420.i, label %_ZNK4ofbx8DataVieweqEPKc.exit.thread, label %.lr.ph.i

.lr.ph.i:                                         ; preds = %.lr.ph.split, %20
  %18 = phi i8 [ %23, %20 ], [ %.fr, %.lr.ph.split ]
  %.023.i = phi ptr [ %22, %20 ], [ %15, %.lr.ph.split ]
  %.01122.i = phi ptr [ %21, %20 ], [ %1, %.lr.ph.split ]
  %19 = load i8, ptr %.023.i, align 1
  %.not15.i = icmp eq i8 %18, %19
  br i1 %.not15.i, label %20, label %_ZNK4ofbx8DataVieweqEPKc.exit.thread

20:                                               ; preds = %.lr.ph.i
  %21 = getelementptr inbounds i8, ptr %.01122.i, i64 1
  %22 = getelementptr inbounds i8, ptr %.023.i, i64 1
  %23 = load i8, ptr %21, align 1
  %.not.i = icmp eq i8 %23, 0
  %.not14.i = icmp eq ptr %22, %17
  %or.cond.i = select i1 %.not.i, i1 true, i1 %.not14.i
  br i1 %or.cond.i, label %_ZNK4ofbx8DataVieweqEPKc.exit, label %.lr.ph.i, !llvm.loop !5

_ZNK4ofbx8DataVieweqEPKc.exit:                    ; preds = %20
  %24 = and i1 %.not.i, %.not14.i
  br i1 %24, label %_ZNK4ofbx8DataVieweqEPKc.exit._crit_edge, label %_ZNK4ofbx8DataVieweqEPKc.exit.thread

_ZNK4ofbx8DataVieweqEPKc.exit.thread:             ; preds = %.lr.ph.i, %.lr.ph.split, %_ZNK4ofbx8DataVieweqEPKc.exit
  %25 = getelementptr inbounds i8, ptr %13, i64 40
  %26 = load ptr, ptr %25, align 8
  %.not = icmp eq ptr %26, null
  br i1 %.not, label %_ZNK4ofbx8DataVieweqEPKc.exit._crit_edge, label %.lr.ph.split, !llvm.loop !8

_ZNK4ofbx8DataVieweqEPKc.exit._crit_edge:         ; preds = %_ZNK4ofbx8DataVieweqEPKc.exit.thread, %_ZNK4ofbx8DataVieweqEPKc.exit, %_ZNK4ofbx8DataVieweqEPKc.exit.thread.us, %_ZNK4ofbx8DataVieweqEPKc.exit.us, %2
  %.lcssa = phi ptr [ null, %2 ], [ %6, %_ZNK4ofbx8DataVieweqEPKc.exit.us ], [ null, %_ZNK4ofbx8DataVieweqEPKc.exit.thread.us ], [ %13, %_ZNK4ofbx8DataVieweqEPKc.exit ], [ null, %_ZNK4ofbx8DataVieweqEPKc.exit.thread ]
  ret ptr %.lcssa
}